EXPORTS
	??0InDeviceHandler@@QAE@XZ @ 1 NONAME ; InDeviceHandler::InDeviceHandler(void)
	?setCategory@InDeviceHandler@@QAEXVQString@@@Z @ 2 NONAME ; void InDeviceHandler::setCategory(class QString)
	?getDocumentAtIndex@InDeviceHandler@@QAEPAVCpixDocument@@H@Z @ 3 NONAME ; class CpixDocument * InDeviceHandler::getDocumentAtIndex(int)
	?getDocumentAsync@InDeviceHandler@@AAEXHPAVCpixDocument@@@Z @ 4 NONAME ; void InDeviceHandler::getDocumentAsync(int, class CpixDocument *)
	?isPrepared@InDeviceHandler@@QAE_NXZ @ 5 NONAME ; bool InDeviceHandler::isPrepared(void)
	?handleAsyncSearchResult@InDeviceHandler@@IAEXHH@Z @ 6 NONAME ; void InDeviceHandler::handleAsyncSearchResult(int, int)
	?qt_metacast@InDeviceHandler@@UAEPAXPBD@Z @ 7 NONAME ; void * InDeviceHandler::qt_metacast(char const *)
	?cancelLastSearch@InDeviceHandler@@QAEXXZ @ 8 NONAME ; void InDeviceHandler::cancelLastSearch(void)
	?getDocumentAsyncAtIndex@InDeviceHandler@@QAEXH@Z @ 9 NONAME ; void InDeviceHandler::getDocumentAsyncAtIndex(int)
	?metaObject@InDeviceHandler@@UBEPBUQMetaObject@@XZ @ 10 NONAME ; struct QMetaObject const * InDeviceHandler::metaObject(void) const
	??_EInDeviceHandler@@UAE@I@Z @ 11 NONAME ; InDeviceHandler::~InDeviceHandler(unsigned int)
	?qt_metacall@InDeviceHandler@@UAEHW4Call@QMetaObject@@HPAPAX@Z @ 12 NONAME ; int InDeviceHandler::qt_metacall(enum QMetaObject::Call, int, void * *)
	?handleSearchResult@InDeviceHandler@@IAEXHH@Z @ 13 NONAME ; void InDeviceHandler::handleSearchResult(int, int)
	?tr@InDeviceHandler@@SA?AVQString@@PBD0H@Z @ 14 NONAME ; class QString InDeviceHandler::tr(char const *, char const *, int)
	??1InDeviceHandler@@UAE@XZ @ 15 NONAME ; InDeviceHandler::~InDeviceHandler(void)
	?trUtf8@InDeviceHandler@@SA?AVQString@@PBD0@Z @ 16 NONAME ; class QString InDeviceHandler::trUtf8(char const *, char const *)
	?tr@InDeviceHandler@@SA?AVQString@@PBD0@Z @ 17 NONAME ; class QString InDeviceHandler::tr(char const *, char const *)
	?trUtf8@InDeviceHandler@@SA?AVQString@@PBD0H@Z @ 18 NONAME ; class QString InDeviceHandler::trUtf8(char const *, char const *, int)
	?getStaticMetaObject@InDeviceHandler@@SAABUQMetaObject@@XZ @ 19 NONAME ; struct QMetaObject const & InDeviceHandler::getStaticMetaObject(void)
	?handleDocument@InDeviceHandler@@IAEXHPAVCpixDocument@@@Z @ 20 NONAME ; void InDeviceHandler::handleDocument(int, class CpixDocument *)
	?getSearchResultCount@InDeviceHandler@@QAEHXZ @ 21 NONAME ; int InDeviceHandler::getSearchResultCount(void)
	?searchAsync@InDeviceHandler@@QAEXVQString@@0@Z @ 22 NONAME ; void InDeviceHandler::searchAsync(class QString, class QString)
	?staticMetaObject@InDeviceHandler@@2UQMetaObject@@B @ 23 NONAME ; struct QMetaObject const InDeviceHandler::staticMetaObject
	?getSearchResult@InDeviceHandler@@AAEXHH@Z @ 24 NONAME ; void InDeviceHandler::getSearchResult(int, int)

